; ModuleID = 'source-C-CXX/54/1264.c'
source_filename = "source-C-CXX/54/1264.c"
target datalayout = "e-m:e-p270:32:32-p271:32:32-p272:64:64-i64:64-f80:128-n8:16:32:64-S128"
target triple = "x86_64-pc-linux-gnu"

@.str.1 = private unnamed_addr constant [9 x i8] c"%d %s %d\00", align 1

; Function Attrs: mustprogress nofree norecurse nosync nounwind readnone sspstrong uwtable willreturn
define dso_local i32 @convert_1(i8 signext %0) local_unnamed_addr #0 {
  %2 = sext i8 %0 to i32
  %3 = add i8 %0, -48
  %4 = icmp ult i8 %3, 10
  br i1 %4, label %5, label %7

5:                                                ; preds = %1
  %6 = add nsw i32 %2, -48
  br label %17

7:                                                ; preds = %1
  %8 = add i8 %0, -97
  %9 = icmp ult i8 %8, 26
  br i1 %9, label %10, label %12

10:                                               ; preds = %7
  %11 = add nsw i32 %2, -87
  br label %17

12:                                               ; preds = %7
  %13 = add i8 %0, -65
  %14 = icmp ult i8 %13, 26
  %15 = add nsw i32 %2, -55
  %16 = select i1 %14, i32 %15, i32 undef
  br label %17

17:                                               ; preds = %12, %5, %10
  %18 = phi i32 [ %6, %5 ], [ %11, %10 ], [ %16, %12 ]
  ret i32 %18
}

; Function Attrs: mustprogress nofree norecurse nosync nounwind readnone sspstrong uwtable willreturn
define dso_local signext i8 @convert_2(i32 %0) local_unnamed_addr #0 {
  %2 = icmp slt i32 %0, 10
  %3 = trunc i32 %0 to i8
  %4 = select i1 %2, i8 48, i8 55
  %5 = add i8 %4, %3
  ret i8 %5
}

; Function Attrs: nofree nounwind sspstrong uwtable
define dso_local void @convert(i32 %0, i32 %1) local_unnamed_addr #1 {
  %3 = icmp slt i32 %0, %1
  br i1 %3, label %6, label %4

4:                                                ; preds = %2
  %5 = sdiv i32 %0, %1
  tail call void @convert(i32 %5, i32 %1)
  br label %6

6:                                                ; preds = %4, %2
  %7 = srem i32 %0, %1
  %8 = icmp slt i32 %7, 10
  %9 = select i1 %8, i32 48, i32 55
  %10 = add i32 %9, %7
  %11 = shl i32 %10, 24
  %12 = ashr exact i32 %11, 24
  %13 = tail call i32 @putchar(i32 %12)
  ret void
}

; Function Attrs: nofree nounwind sspstrong uwtable
define dso_local i32 @main() local_unnamed_addr #1 {
  %1 = alloca i32, align 4
  %2 = alloca i32, align 4
  %3 = alloca [500 x i8], align 16
  %4 = bitcast i32* %1 to i8*
  call void @llvm.lifetime.start.p0i8(i64 4, i8* nonnull %4) #6
  %5 = bitcast i32* %2 to i8*
  call void @llvm.lifetime.start.p0i8(i64 4, i8* nonnull %5) #6
  %6 = getelementptr inbounds [500 x i8], [500 x i8]* %3, i64 0, i64 0
  call void @llvm.lifetime.start.p0i8(i64 500, i8* nonnull %6) #6
  %7 = call i32 (i8*, ...) @__isoc99_scanf(i8* getelementptr inbounds ([9 x i8], [9 x i8]* @.str.1, i64 0, i64 0), i32* nonnull %1, i8* nonnull %6, i32* nonnull %2)
  %8 = call i64 @strlen(i8* noundef nonnull %6) #7
  %9 = trunc i64 %8 to i32
  %10 = load i32, i32* %1, align 4
  %11 = add i32 %9, -1
  %12 = icmp sgt i32 %11, -1
  br i1 %12, label %13, label %42

13:                                               ; preds = %0, %35
  %14 = phi i32 [ %40, %35 ], [ %11, %0 ]
  %15 = phi i32 [ %39, %35 ], [ 1, %0 ]
  %16 = phi i32 [ %38, %35 ], [ 0, %0 ]
  %17 = zext i32 %14 to i64
  %18 = getelementptr inbounds [500 x i8], [500 x i8]* %3, i64 0, i64 %17
  %19 = load i8, i8* %18, align 1, !tbaa !5
  %20 = sext i8 %19 to i32
  %21 = add i8 %19, -48
  %22 = icmp ult i8 %21, 10
  br i1 %22, label %23, label %25

23:                                               ; preds = %13
  %24 = add nsw i32 %20, -48
  br label %35

25:                                               ; preds = %13
  %26 = add i8 %19, -97
  %27 = icmp ult i8 %26, 26
  br i1 %27, label %28, label %30

28:                                               ; preds = %25
  %29 = add nsw i32 %20, -87
  br label %35

30:                                               ; preds = %25
  %31 = add i8 %19, -65
  %32 = icmp ult i8 %31, 26
  %33 = add nsw i32 %20, -55
  %34 = select i1 %32, i32 %33, i32 undef
  br label %35

35:                                               ; preds = %23, %28, %30
  %36 = phi i32 [ %24, %23 ], [ %29, %28 ], [ %34, %30 ]
  %37 = mul nsw i32 %36, %15
  %38 = add nsw i32 %37, %16
  %39 = mul nsw i32 %10, %15
  %40 = add i32 %14, -1
  %41 = icmp sgt i32 %40, -1
  br i1 %41, label %13, label %42, !llvm.loop !8

42:                                               ; preds = %35, %0
  %43 = phi i32 [ 0, %0 ], [ %38, %35 ]
  %44 = load i32, i32* %2, align 4, !tbaa !10
  call void @convert(i32 %43, i32 %44)
  %45 = call i32 @putchar(i32 10)
  call void @llvm.lifetime.end.p0i8(i64 500, i8* nonnull %6) #6
  call void @llvm.lifetime.end.p0i8(i64 4, i8* nonnull %5) #6
  call void @llvm.lifetime.end.p0i8(i64 4, i8* nonnull %4) #6
  ret i32 0
}

; Function Attrs: argmemonly mustprogress nofree nosync nounwind willreturn
declare void @llvm.lifetime.start.p0i8(i64 immarg, i8* nocapture) #2

; Function Attrs: nofree nounwind
declare noundef i32 @__isoc99_scanf(i8* nocapture noundef readonly, ...) local_unnamed_addr #3

; Function Attrs: argmemonly mustprogress nofree nounwind readonly willreturn
declare i64 @strlen(i8* nocapture) local_unnamed_addr #4

; Function Attrs: argmemonly mustprogress nofree nosync nounwind willreturn
declare void @llvm.lifetime.end.p0i8(i64 immarg, i8* nocapture) #2

; Function Attrs: nofree nounwind
declare noundef i32 @putchar(i32 noundef) local_unnamed_addr #5


!llvm.module.flags = !{!0, !1, !2, !3}
!llvm.ident = !{!4}

!0 = !{i32 1, !"wchar_size", i32 4}
!1 = !{i32 7, !"PIC Level", i32 2}
!2 = !{i32 7, !"PIE Level", i32 2}
!3 = !{i32 7, !"uwtable", i32 1}
!4 = !{!"clang version 13.0.0"}
!5 = !{!6, !6, i64 0}
!6 = !{!"omnipotent char", !7, i64 0}
!7 = !{!"Simple C/C++ TBAA"}
!8 = distinct !{!8, !9}
!9 = !{!"llvm.loop.mustprogress"}
!10 = !{!11, !11, i64 0}
!11 = !{!"int", !6, i64 0}
